ccopy_reg
_reconstructor
p0
(cdedupe.datamodel
DataModel
p1
c__builtin__
object
p2
Ntp3
Rp4
(dp5
S'primary_fields'
p6
(lp7
g0
(cdedupe.variables.exact
ExactType
p8
g2
Ntp9
Rp10
(dp11
S'predicates'
p12
(lp13
g0
(cdedupe.predicates
SimplePredicate
p14
g2
Ntp15
Rp16
(dp17
S'_cached_hash'
p18
I-1358267375
sS'__name__'
p19
S'(wholeFieldPredicate, event)'
p20
sS'func'
p21
cdedupe.predicates
wholeFieldPredicate
p22
sS'field'
p23
S'event'
p24
sbasg23
g24
sS'name'
p25
S'(event: Exact)'
p26
sS'has_missing'
p27
I00
sbag0
(g8
g2
Ntp28
Rp29
(dp30
g12
(lp31
g0
(g14
g2
Ntp32
Rp33
(dp34
g18
I405294387
sg19
S'(wholeFieldPredicate, vessel_name)'
p35
sg21
g22
sg23
S'vessel_name'
p36
sbasg23
g36
sg25
S'(vessel_name: Exact)'
p37
sg27
I00
sbag0
(cdedupe.variables.string
StringType
p38
g2
Ntp39
Rp40
(dp41
g12
(lp42
g0
(cdedupe.predicates
StringPredicate
p43
g2
Ntp44
Rp45
(dp46
g18
I-1948103421
sg19
S'(wholeFieldPredicate, datetime)'
p47
sg21
g22
sg23
S'datetime'
p48
sbag0
(g43
g2
Ntp49
Rp50
(dp51
g18
I1761670521
sg19
S'(firstTokenPredicate, datetime)'
p52
sg21
cdedupe.predicates
firstTokenPredicate
p53
sg23
g48
sbag0
(g43
g2
Ntp54
Rp55
(dp56
g18
I541278242
sg19
S'(commonIntegerPredicate, datetime)'
p57
sg21
cdedupe.predicates
commonIntegerPredicate
p58
sg23
g48
sbag0
(g43
g2
Ntp59
Rp60
(dp61
g18
I219870961
sg19
S'(nearIntegersPredicate, datetime)'
p62
sg21
cdedupe.predicates
nearIntegersPredicate
p63
sg23
g48
sbag0
(g43
g2
Ntp64
Rp65
(dp66
g18
I965408426
sg19
S'(firstIntegerPredicate, datetime)'
p67
sg21
cdedupe.predicates
firstIntegerPredicate
p68
sg23
g48
sbag0
(g43
g2
Ntp69
Rp70
(dp71
g18
I1371400102
sg19
S'(hundredIntegerPredicate, datetime)'
p72
sg21
cdedupe.predicates
hundredIntegerPredicate
p73
sg23
g48
sbag0
(g43
g2
Ntp74
Rp75
(dp76
g18
I-831026008
sg19
S'(hundredIntegersOddPredicate, datetime)'
p77
sg21
cdedupe.predicates
hundredIntegersOddPredicate
p78
sg23
g48
sbag0
(g43
g2
Ntp79
Rp80
(dp81
g18
I1869641791
sg19
S'(alphaNumericPredicate, datetime)'
p82
sg21
cdedupe.predicates
alphaNumericPredicate
p83
sg23
g48
sbag0
(g43
g2
Ntp84
Rp85
(dp86
g18
I22269190
sg19
S'(sameThreeCharStartPredicate, datetime)'
p87
sg21
cdedupe.predicates
sameThreeCharStartPredicate
p88
sg23
g48
sbag0
(g43
g2
Ntp89
Rp90
(dp91
g18
I1674846479
sg19
S'(sameFiveCharStartPredicate, datetime)'
p92
sg21
cdedupe.predicates
sameFiveCharStartPredicate
p93
sg23
g48
sbag0
(g43
g2
Ntp94
Rp95
(dp96
g18
I-2126279325
sg19
S'(sameSevenCharStartPredicate, datetime)'
p97
sg21
cdedupe.predicates
sameSevenCharStartPredicate
p98
sg23
g48
sbag0
(g43
g2
Ntp99
Rp100
(dp101
g18
I1786854586
sg19
S'(commonTwoTokens, datetime)'
p102
sg21
cdedupe.predicates
commonTwoTokens
p103
sg23
g48
sbag0
(g43
g2
Ntp104
Rp105
(dp106
g18
I-1442703922
sg19
S'(commonThreeTokens, datetime)'
p107
sg21
cdedupe.predicates
commonThreeTokens
p108
sg23
g48
sbag0
(g43
g2
Ntp109
Rp110
(dp111
g18
I968189713
sg19
S'(fingerprint, datetime)'
p112
sg21
cdedupe.predicates
fingerprint
p113
sg23
g48
sbag0
(g43
g2
Ntp114
Rp115
(dp116
g18
I-59250759
sg19
S'(oneGramFingerprint, datetime)'
p117
sg21
cdedupe.predicates
oneGramFingerprint
p118
sg23
g48
sbag0
(g43
g2
Ntp119
Rp120
(dp121
g18
I930488843
sg19
S'(twoGramFingerprint, datetime)'
p122
sg21
cdedupe.predicates
twoGramFingerprint
p123
sg23
g48
sbag0
(g43
g2
Ntp124
Rp125
(dp126
g18
I-1745706387
sg19
S'(sortedAcronym, datetime)'
p127
sg21
cdedupe.predicates
sortedAcronym
p128
sg23
g48
sbag0
(g43
g2
Ntp129
Rp130
(dp131
g18
I696714482
sg19
S'(commonFourGram, datetime)'
p132
sg21
cdedupe.predicates
commonFourGram
p133
sg23
g48
sbag0
(g43
g2
Ntp134
Rp135
(dp136
g18
I-851249421
sg19
S'(commonSixGram, datetime)'
p137
sg21
cdedupe.predicates
commonSixGram
p138
sg23
g48
sbag0
(g43
g2
Ntp139
Rp140
(dp141
g18
I-136773767
sg19
S'(tokenFieldPredicate, datetime)'
p142
sg21
cdedupe.predicates
tokenFieldPredicate
p143
sg23
g48
sbag0
(g43
g2
Ntp144
Rp145
(dp146
g18
I-693413205
sg19
S'(suffixArray, datetime)'
p147
sg21
cdedupe.predicates
suffixArray
p148
sg23
g48
sbag0
(g43
g2
Ntp149
Rp150
(dp151
g18
I-1740113959
sg19
S'(doubleMetaphone, datetime)'
p152
sg21
cdedupe.predicates
doubleMetaphone
p153
sg23
g48
sbag0
(g43
g2
Ntp154
Rp155
(dp156
g18
I-617662004
sg19
S'(metaphoneToken, datetime)'
p157
sg21
cdedupe.predicates
metaphoneToken
p158
sg23
g48
sbag0
(cdedupe.predicates
TfidfNGramCanopyPredicate
p159
g2
Ntp160
Rp161
(dp162
S'threshold'
p163
F0.2
sg23
g48
sg18
I193468709
sg19
S'(0.2, datetime)'
p164
sbag0
(g159
g2
Ntp165
Rp166
(dp167
g163
F0.4
sg23
g48
sg18
I-163484125
sg19
S'(0.4, datetime)'
p168
sbag0
(g159
g2
Ntp169
Rp170
(dp171
g163
F0.6
sg23
g48
sg18
I-1572331039
sg19
S'(0.6, datetime)'
p172
sbag0
(g159
g2
Ntp173
Rp174
(dp175
g163
F0.8
sg23
g48
sg18
I-932675841
sg19
S'(0.8, datetime)'
p176
sbag0
(cdedupe.predicates
TfidfNGramSearchPredicate
p177
g2
Ntp178
Rp179
(dp180
g163
F0.2
sg19
S'(0.2, datetime)'
p181
sg23
g48
sbag0
(g177
g2
Ntp182
Rp183
(dp184
g163
F0.4
sg19
S'(0.4, datetime)'
p185
sg23
g48
sbag0
(g177
g2
Ntp186
Rp187
(dp188
g163
F0.6
sg19
S'(0.6, datetime)'
p189
sg23
g48
sbag0
(g177
g2
Ntp190
Rp191
(dp192
g163
F0.8
sg19
S'(0.8, datetime)'
p193
sg23
g48
sbag0
(cdedupe.predicates
TfidfTextCanopyPredicate
p194
g2
Ntp195
Rp196
(dp197
g163
F0.2
sg23
g48
sg18
I-30794718
sg19
S'(0.2, datetime)'
p198
sbag0
(g194
g2
Ntp199
Rp200
(dp201
g163
F0.4
sg23
g48
sg18
I-1622693212
sg19
S'(0.4, datetime)'
p202
sbag0
(g194
g2
Ntp203
Rp204
(dp205
g163
F0.6
sg23
g48
sg18
I-904247706
sg19
S'(0.6, datetime)'
p206
sbag0
(g194
g2
Ntp207
Rp208
(dp209
g163
F0.8
sg23
g48
sg18
I1677750392
sg19
S'(0.8, datetime)'
p210
sbag0
(cdedupe.predicates
TfidfTextSearchPredicate
p211
g2
Ntp212
Rp213
(dp214
g163
F0.2
sg19
S'(0.2, datetime)'
p215
sg23
g48
sbag0
(g211
g2
Ntp216
Rp217
(dp218
g163
F0.4
sg19
S'(0.4, datetime)'
p219
sg23
g48
sbag0
(g211
g2
Ntp220
Rp221
(dp222
g163
F0.6
sg19
S'(0.6, datetime)'
p223
sg23
g48
sbag0
(g211
g2
Ntp224
Rp225
(dp226
g163
F0.8
sg19
S'(0.8, datetime)'
p227
sg23
g48
sbag0
(cdedupe.predicates
LevenshteinCanopyPredicate
p228
g2
Ntp229
Rp230
(dp231
g163
I1
sg23
g48
sg18
I1988392088
sg19
S'(1, datetime)'
p232
sbag0
(g228
g2
Ntp233
Rp234
(dp235
g163
I2
sg23
g48
sg18
I1725398465
sg19
S'(2, datetime)'
p236
sbag0
(g228
g2
Ntp237
Rp238
(dp239
g163
I3
sg23
g48
sg18
I2085262682
sg19
S'(3, datetime)'
p240
sbag0
(g228
g2
Ntp241
Rp242
(dp243
g163
I4
sg23
g48
sg18
I-2038549829
sg19
S'(4, datetime)'
p244
sbag0
(cdedupe.predicates
LevenshteinSearchPredicate
p245
g2
Ntp246
Rp247
(dp248
g163
I1
sg19
S'(1, datetime)'
p249
sg23
g48
sbag0
(g245
g2
Ntp250
Rp251
(dp252
g163
I2
sg19
S'(2, datetime)'
p253
sg23
g48
sbag0
(g245
g2
Ntp254
Rp255
(dp256
g163
I3
sg19
S'(3, datetime)'
p257
sg23
g48
sbag0
(g245
g2
Ntp258
Rp259
(dp260
g163
I4
sg19
S'(4, datetime)'
p261
sg23
g48
sbasg23
g48
sg25
S'(datetime: String)'
p262
sg27
I00
sS'comparator'
p263
caffinegap.affinegap
normalizedAffineGapDistance
p264
sbasS'_variables'
p265
(lp266
g10
ag29
ag40
asS'_missing_field_indices'
p267
(lp268
sS'_derived_start'
p269
I3
sS'_interaction_indices'
p270
(lp271
sb.ccopy_reg
_reconstructor
p0
(crlr.lr
RegularizedLogisticRegression
p1
c__builtin__
object
p2
Ntp3
Rp4
(dp5
S'alpha'
p6
I1
sS'bias'
p7
cnumpy.core.multiarray
scalar
p8
(cnumpy
dtype
p9
(S'f8'
p10
I0
I1
tp11
Rp12
(I3
S'<'
p13
NNNI-1
I-1
I0
tp14
bS'z\xd3\x887\xd2\x9e\xfe\xbf'
p15
tp16
Rp17
sS'num_cores'
p18
I0
sS'cv'
p19
I3
sS'weights'
p20
cnumpy.core.multiarray
_reconstruct
p21
(cnumpy
ndarray
p22
(I0
tp23
S'b'
p24
tp25
Rp26
(I1
(L3L
tp27
g12
I00
S'\x8a\xb15\xc3\t\xae\xee?D\x1c\xde\xa7\x99n\x04@\x07\x16\x94\x04\xf6U\xf4\xbf'
p28
tp29
bsb.(ccopy_reg
_reconstructor
p0
(cdedupe.predicates
CompoundPredicate
p1
c__builtin__
tuple
p2
(g0
(cdedupe.predicates
StringPredicate
p3
c__builtin__
object
p4
Ntp5
Rp6
(dp7
S'_cached_hash'
p8
I22269190
sS'__name__'
p9
S'(sameThreeCharStartPredicate, datetime)'
p10
sS'func'
p11
cdedupe.predicates
sameThreeCharStartPredicate
p12
sS'field'
p13
S'datetime'
p14
sbg0
(cdedupe.predicates
SimplePredicate
p15
g4
Ntp16
Rp17
(dp18
g8
I405294387
sg9
S'(wholeFieldPredicate, vessel_name)'
p19
sg11
cdedupe.predicates
wholeFieldPredicate
p20
sg13
S'vessel_name'
p21
sbtp22
tp23
Rp24
(dp25
S'count'
p26
F920.2361066640891
sbtp27
.